; ModuleID = '20/48.c'
source_filename = "20/48.c"
target datalayout = "e-m:e-p270:32:32-p271:32:32-p272:64:64-i64:64-f80:128-n8:16:32:64-S128"
target triple = "x86_64-pc-linux-gnu"

@.str = private unnamed_addr constant [3 x i8] c"%c\00", align 1
@.str.1 = private unnamed_addr constant [2 x i8] c"\0A\00", align 1

; Function Attrs: noinline nounwind uwtable
define dso_local void @main() #0 {
  %1 = alloca [100 x [50 x i8]], align 16
  %2 = alloca [100 x [50 x i8]], align 16
  %3 = alloca i32, align 4
  %4 = alloca [100 x i32], align 16
  %5 = alloca i32, align 4
  %6 = alloca i32, align 4
  %7 = alloca i32, align 4
  %8 = alloca i32, align 4
  %9 = alloca i32, align 4
  %10 = alloca i32, align 4
  %11 = alloca i32, align 4
  store i32 0, i32* %5, align 4
  br label %12

12:                                               ; preds = %27, %0
  %13 = load i32, i32* %5, align 4
  %14 = sext i32 %13 to i64
  %15 = getelementptr inbounds [100 x [50 x i8]], [100 x [50 x i8]]* %1, i64 0, i64 %14
  %16 = getelementptr inbounds [50 x i8], [50 x i8]* %15, i64 0, i64 0
  %17 = call i32 (i8*, ...) bitcast (i32 (...)* @gets to i32 (i8*, ...)*)(i8* %16)
  %18 = load i32, i32* %5, align 4
  %19 = add nsw i32 %18, 1
  store i32 %19, i32* %5, align 4
  %20 = load i32, i32* %5, align 4
  %21 = sub nsw i32 %20, 1
  %22 = sext i32 %21 to i64
  %23 = getelementptr inbounds [100 x [50 x i8]], [100 x [50 x i8]]* %1, i64 0, i64 %22
  %24 = getelementptr inbounds [50 x i8], [50 x i8]* %23, i64 0, i64 0
  %25 = call i64 @strlen(i8* %24) #3
  %26 = trunc i64 %25 to i32
  store i32 %26, i32* %3, align 4
  br label %27

27:                                               ; preds = %12
  %28 = load i32, i32* %3, align 4
  %29 = icmp ne i32 %28, 0
  br i1 %29, label %12, label %30

30:                                               ; preds = %27
  %31 = load i32, i32* %5, align 4
  %32 = sub nsw i32 %31, 1
  store i32 %32, i32* %7, align 4
  store i32 0, i32* %5, align 4
  br label %33

33:                                               ; preds = %189, %30
  %34 = load i32, i32* %5, align 4
  %35 = load i32, i32* %7, align 4
  %36 = icmp slt i32 %34, %35
  br i1 %36, label %37, label %192

37:                                               ; preds = %33
  %38 = load i32, i32* %5, align 4
  %39 = sext i32 %38 to i64
  %40 = getelementptr inbounds [100 x [50 x i8]], [100 x [50 x i8]]* %1, i64 0, i64 %39
  %41 = getelementptr inbounds [50 x i8], [50 x i8]* %40, i64 0, i64 0
  %42 = call i64 @strlen(i8* %41) #3
  %43 = trunc i64 %42 to i32
  %44 = load i32, i32* %5, align 4
  %45 = sext i32 %44 to i64
  %46 = getelementptr inbounds [100 x i32], [100 x i32]* %4, i64 0, i64 %45
  store i32 %43, i32* %46, align 4
  %47 = load i32, i32* %5, align 4
  %48 = sext i32 %47 to i64
  %49 = getelementptr inbounds [100 x [50 x i8]], [100 x [50 x i8]]* %1, i64 0, i64 %48
  %50 = getelementptr inbounds [50 x i8], [50 x i8]* %49, i64 0, i64 0
  %51 = load i8, i8* %50, align 2
  %52 = sext i8 %51 to i32
  store i32 %52, i32* %8, align 4
  store i32 0, i32* %9, align 4
  store i32 1, i32* %6, align 4
  br label %53

53:                                               ; preds = %83, %37
  %54 = load i32, i32* %6, align 4
  %55 = load i32, i32* %5, align 4
  %56 = sext i32 %55 to i64
  %57 = getelementptr inbounds [100 x i32], [100 x i32]* %4, i64 0, i64 %56
  %58 = load i32, i32* %57, align 4
  %59 = sub nsw i32 %58, 4
  %60 = icmp slt i32 %54, %59
  br i1 %60, label %61, label %86

61:                                               ; preds = %53
  %62 = load i32, i32* %5, align 4
  %63 = sext i32 %62 to i64
  %64 = getelementptr inbounds [100 x [50 x i8]], [100 x [50 x i8]]* %1, i64 0, i64 %63
  %65 = load i32, i32* %6, align 4
  %66 = sext i32 %65 to i64
  %67 = getelementptr inbounds [50 x i8], [50 x i8]* %64, i64 0, i64 %66
  %68 = load i8, i8* %67, align 1
  %69 = sext i8 %68 to i32
  %70 = load i32, i32* %8, align 4
  %71 = icmp sgt i32 %69, %70
  br i1 %71, label %72, label %82

72:                                               ; preds = %61
  %73 = load i32, i32* %5, align 4
  %74 = sext i32 %73 to i64
  %75 = getelementptr inbounds [100 x [50 x i8]], [100 x [50 x i8]]* %1, i64 0, i64 %74
  %76 = load i32, i32* %6, align 4
  %77 = sext i32 %76 to i64
  %78 = getelementptr inbounds [50 x i8], [50 x i8]* %75, i64 0, i64 %77
  %79 = load i8, i8* %78, align 1
  %80 = sext i8 %79 to i32
  store i32 %80, i32* %8, align 4
  %81 = load i32, i32* %6, align 4
  store i32 %81, i32* %9, align 4
  br label %82

82:                                               ; preds = %72, %61
  br label %83

83:                                               ; preds = %82
  %84 = load i32, i32* %6, align 4
  %85 = add nsw i32 %84, 1
  store i32 %85, i32* %6, align 4
  br label %53

86:                                               ; preds = %53
  store i32 0, i32* %6, align 4
  br label %87

87:                                               ; preds = %105, %86
  %88 = load i32, i32* %6, align 4
  %89 = load i32, i32* %9, align 4
  %90 = icmp sle i32 %88, %89
  br i1 %90, label %91, label %108

91:                                               ; preds = %87
  %92 = load i32, i32* %5, align 4
  %93 = sext i32 %92 to i64
  %94 = getelementptr inbounds [100 x [50 x i8]], [100 x [50 x i8]]* %1, i64 0, i64 %93
  %95 = load i32, i32* %6, align 4
  %96 = sext i32 %95 to i64
  %97 = getelementptr inbounds [50 x i8], [50 x i8]* %94, i64 0, i64 %96
  %98 = load i8, i8* %97, align 1
  %99 = load i32, i32* %5, align 4
  %100 = sext i32 %99 to i64
  %101 = getelementptr inbounds [100 x [50 x i8]], [100 x [50 x i8]]* %2, i64 0, i64 %100
  %102 = load i32, i32* %6, align 4
  %103 = sext i32 %102 to i64
  %104 = getelementptr inbounds [50 x i8], [50 x i8]* %101, i64 0, i64 %103
  store i8 %98, i8* %104, align 1
  br label %105

105:                                              ; preds = %91
  %106 = load i32, i32* %6, align 4
  %107 = add nsw i32 %106, 1
  store i32 %107, i32* %6, align 4
  br label %87

108:                                              ; preds = %87
  %109 = load i32, i32* %9, align 4
  %110 = add nsw i32 %109, 1
  store i32 %110, i32* %6, align 4
  br label %111

111:                                              ; preds = %138, %108
  %112 = load i32, i32* %6, align 4
  %113 = load i32, i32* %9, align 4
  %114 = add nsw i32 %113, 3
  %115 = icmp sle i32 %112, %114
  br i1 %115, label %116, label %141

116:                                              ; preds = %111
  %117 = load i32, i32* %5, align 4
  %118 = sext i32 %117 to i64
  %119 = getelementptr inbounds [100 x [50 x i8]], [100 x [50 x i8]]* %1, i64 0, i64 %118
  %120 = load i32, i32* %5, align 4
  %121 = sext i32 %120 to i64
  %122 = getelementptr inbounds [100 x i32], [100 x i32]* %4, i64 0, i64 %121
  %123 = load i32, i32* %122, align 4
  %124 = load i32, i32* %6, align 4
  %125 = add nsw i32 %123, %124
  %126 = load i32, i32* %9, align 4
  %127 = sub nsw i32 %125, %126
  %128 = sub nsw i32 %127, 4
  %129 = sext i32 %128 to i64
  %130 = getelementptr inbounds [50 x i8], [50 x i8]* %119, i64 0, i64 %129
  %131 = load i8, i8* %130, align 1
  %132 = load i32, i32* %5, align 4
  %133 = sext i32 %132 to i64
  %134 = getelementptr inbounds [100 x [50 x i8]], [100 x [50 x i8]]* %2, i64 0, i64 %133
  %135 = load i32, i32* %6, align 4
  %136 = sext i32 %135 to i64
  %137 = getelementptr inbounds [50 x i8], [50 x i8]* %134, i64 0, i64 %136
  store i8 %131, i8* %137, align 1
  br label %138

138:                                              ; preds = %116
  %139 = load i32, i32* %6, align 4
  %140 = add nsw i32 %139, 1
  store i32 %140, i32* %6, align 4
  br label %111

141:                                              ; preds = %111
  %142 = load i32, i32* %9, align 4
  %143 = add nsw i32 %142, 4
  store i32 %143, i32* %6, align 4
  br label %144

144:                                              ; preds = %166, %141
  %145 = load i32, i32* %6, align 4
  %146 = load i32, i32* %5, align 4
  %147 = sext i32 %146 to i64
  %148 = getelementptr inbounds [100 x i32], [100 x i32]* %4, i64 0, i64 %147
  %149 = load i32, i32* %148, align 4
  %150 = icmp slt i32 %145, %149
  br i1 %150, label %151, label %169

151:                                              ; preds = %144
  %152 = load i32, i32* %5, align 4
  %153 = sext i32 %152 to i64
  %154 = getelementptr inbounds [100 x [50 x i8]], [100 x [50 x i8]]* %1, i64 0, i64 %153
  %155 = load i32, i32* %6, align 4
  %156 = sub nsw i32 %155, 3
  %157 = sext i32 %156 to i64
  %158 = getelementptr inbounds [50 x i8], [50 x i8]* %154, i64 0, i64 %157
  %159 = load i8, i8* %158, align 1
  %160 = load i32, i32* %5, align 4
  %161 = sext i32 %160 to i64
  %162 = getelementptr inbounds [100 x [50 x i8]], [100 x [50 x i8]]* %2, i64 0, i64 %161
  %163 = load i32, i32* %6, align 4
  %164 = sext i32 %163 to i64
  %165 = getelementptr inbounds [50 x i8], [50 x i8]* %162, i64 0, i64 %164
  store i8 %159, i8* %165, align 1
  br label %166

166:                                              ; preds = %151
  %167 = load i32, i32* %6, align 4
  %168 = add nsw i32 %167, 1
  store i32 %168, i32* %6, align 4
  br label %144

169:                                              ; preds = %144
  %170 = load i32, i32* %5, align 4
  %171 = sext i32 %170 to i64
  %172 = getelementptr inbounds [100 x i32], [100 x i32]* %4, i64 0, i64 %171
  %173 = load i32, i32* %172, align 4
  %174 = sub nsw i32 %173, 1
  store i32 %174, i32* %6, align 4
  br label %175

175:                                              ; preds = %185, %169
  %176 = load i32, i32* %6, align 4
  %177 = icmp slt i32 %176, 50
  br i1 %177, label %178, label %188

178:                                              ; preds = %175
  %179 = load i32, i32* %5, align 4
  %180 = sext i32 %179 to i64
  %181 = getelementptr inbounds [100 x [50 x i8]], [100 x [50 x i8]]* %2, i64 0, i64 %180
  %182 = load i32, i32* %6, align 4
  %183 = sext i32 %182 to i64
  %184 = getelementptr inbounds [50 x i8], [50 x i8]* %181, i64 0, i64 %183
  store i8 0, i8* %184, align 1
  br label %185

185:                                              ; preds = %178
  %186 = load i32, i32* %6, align 4
  %187 = add nsw i32 %186, 1
  store i32 %187, i32* %6, align 4
  br label %175

188:                                              ; preds = %175
  br label %189

189:                                              ; preds = %188
  %190 = load i32, i32* %5, align 4
  %191 = add nsw i32 %190, 1
  store i32 %191, i32* %5, align 4
  br label %33

192:                                              ; preds = %33
  store i32 0, i32* %6, align 4
  br label %193

193:                                              ; preds = %223, %192
  %194 = load i32, i32* %6, align 4
  %195 = load i32, i32* %7, align 4
  %196 = icmp slt i32 %194, %195
  br i1 %196, label %197, label %226

197:                                              ; preds = %193
  %198 = load i32, i32* %6, align 4
  %199 = sext i32 %198 to i64
  %200 = getelementptr inbounds [100 x [50 x i8]], [100 x [50 x i8]]* %2, i64 0, i64 %199
  %201 = getelementptr inbounds [50 x i8], [50 x i8]* %200, i64 0, i64 0
  %202 = call i64 @strlen(i8* %201) #3
  %203 = trunc i64 %202 to i32
  store i32 %203, i32* %11, align 4
  store i32 0, i32* %10, align 4
  br label %204

204:                                              ; preds = %218, %197
  %205 = load i32, i32* %10, align 4
  %206 = load i32, i32* %11, align 4
  %207 = icmp slt i32 %205, %206
  br i1 %207, label %208, label %221

208:                                              ; preds = %204
  %209 = load i32, i32* %6, align 4
  %210 = sext i32 %209 to i64
  %211 = getelementptr inbounds [100 x [50 x i8]], [100 x [50 x i8]]* %2, i64 0, i64 %210
  %212 = load i32, i32* %10, align 4
  %213 = sext i32 %212 to i64
  %214 = getelementptr inbounds [50 x i8], [50 x i8]* %211, i64 0, i64 %213
  %215 = load i8, i8* %214, align 1
  %216 = sext i8 %215 to i32
  %217 = call i32 (i8*, ...) @printf(i8* getelementptr inbounds ([3 x i8], [3 x i8]* @.str, i64 0, i64 0), i32 %216)
  br label %218

218:                                              ; preds = %208
  %219 = load i32, i32* %10, align 4
  %220 = add nsw i32 %219, 1
  store i32 %220, i32* %10, align 4
  br label %204

221:                                              ; preds = %204
  %222 = call i32 (i8*, ...) @printf(i8* getelementptr inbounds ([2 x i8], [2 x i8]* @.str.1, i64 0, i64 0))
  br label %223

223:                                              ; preds = %221
  %224 = load i32, i32* %6, align 4
  %225 = add nsw i32 %224, 1
  store i32 %225, i32* %6, align 4
  br label %193

226:                                              ; preds = %193
  ret void
}

declare dso_local i32 @gets(...) #1

; Function Attrs: nounwind readonly
declare dso_local i64 @strlen(i8*) #2

declare dso_local i32 @printf(i8*, ...) #1


!llvm.module.flags = !{!0}
!llvm.ident = !{!1}

!0 = !{i32 1, !"wchar_size", i32 4}
!1 = !{!"clang version 10.0.0-4ubuntu1 "}
